; Function Attrs: nofree norecurse nosync nounwind null_pointer_is_valid sspstrong memory(read, argmem: readwrite, inaccessiblemem: none) uwtable
define hidden range(i32 0, 2) i32 @SetUnion(ptr noundef captures(none) %0, ptr noundef readonly captures(none) %1) local_unnamed_addr #11 {
  %3 = load i32, ptr @size, align 4
  %4 = icmp sgt i32 %3, 0
  br i1 %4, label %.lr.ph.preheader, label %._crit_edge

.lr.ph.preheader:                                 ; preds = %2
  %wide.trip.count = zext nneg i32 %3 to i64
  br label %.lr.ph

.lr.ph:                                           ; preds = %.lr.ph.preheader, %13
  %indvars.iv = phi i64 [ 0, %.lr.ph.preheader ], [ %indvars.iv.next, %13 ]
  %.010 = phi i32 [ 0, %.lr.ph.preheader ], [ %.1, %13 ]
  %5 = getelementptr i8, ptr %1, i64 %indvars.iv
  %6 = load i8, ptr %5, align 1
  %7 = icmp eq i8 %6, 0
  br i1 %7, label %13, label %8

8:                                                ; preds = %.lr.ph
  %9 = getelementptr i8, ptr %0, i64 %indvars.iv
  %10 = load i8, ptr %9, align 1
  %11 = icmp eq i8 %10, 0
  br i1 %11, label %12, label %13

12:                                               ; preds = %8
  store i8 1, ptr %9, align 1
  br label %13

13:                                               ; preds = %8, %12, %.lr.ph
  %.1 = phi i32 [ %.010, %.lr.ph ], [ 1, %12 ], [ %.010, %8 ]
  %indvars.iv.next = add nuw nsw i64 %indvars.iv, 1
  %exitcond.not = icmp eq i64 %indvars.iv.next, %wide.trip.count
  br i1 %exitcond.not, label %._crit_edge, label %.lr.ph, !llvm.loop !28

._crit_edge:                                      ; preds = %13, %2
  %.0.lcssa = phi i32 [ 0, %2 ], [ %.1, %13 ]
  ret i32 %.0.lcssa
}